(dp1
S'OriginalConfig'
p2
ccopy_reg
_reconstructor
p3
(cWMCore.Configuration
Configuration
p4
c__builtin__
object
p5
NtRp6
(dp7
S'Site'
p8
g3
(cWMCore.Configuration
ConfigSection
p9
g5
NtRp10
(dp11
S'_internal_skipChecks'
p12
I00
sS'_internal_documentation'
p13
S''
sS'_internal_settings'
p14
c__builtin__
set
p15
((lp16
S'storageSite'
p17
atRp18
sS'_internal_name'
p19
g8
sS'_internal_docstrings'
p20
(dp21
sS'_internal_children'
p22
g15
((ltRp23
sg17
S'T2_CH_CERN'
p24
sS'_internal_parent_ref'
p25
NsbsS'_internal_sections'
p26
(lp27
S'General'
p28
aS'JobType'
p29
aS'Data'
p30
ag8
aS'User'
p31
aS'Debug'
p32
asg28
g3
(g9
g5
NtRp33
(dp34
g12
I00
sg13
S''
sg14
g15
((ltRp35
sg19
g28
sg20
(dp36
sg22
g15
((ltRp37
sg25
NsbsS'_internal_webapps'
p38
(lp39
sg31
g3
(g9
g5
NtRp40
(dp41
g12
I00
sg13
S''
sg14
g15
((ltRp42
sg19
g31
sg20
(dp43
sg22
g15
((ltRp44
sg25
NsbsS'_internal_components'
p45
(lp46
sg32
g3
(g9
g5
NtRp47
(dp48
g12
I00
sg13
S''
sg14
g15
((ltRp49
sg19
g32
sg20
(dp50
sg22
g15
((ltRp51
sg25
Nsbsg30
g3
(g9
g5
NtRp52
(dp53
S'inputDataset'
p54
S'/ScoutingCaloMuon/Run2017F-v1/RAW'
p55
sg12
I00
sS'unitsPerJob'
p56
I100
sg13
S''
sg14
g15
((lp57
g54
ag56
aS'splitting'
p58
aS'lumiMask'
p59
atRp60
sg19
g30
sg58
S'LumiBased'
p61
sg20
(dp62
sg22
g15
((ltRp63
sg25
Nsg59
S'/afs/cern.ch/cms/CAF/CMSCOMM/COMM_DQM/certification/Collisions17/13TeV/PromptReco/Cert_294927-305364_13TeV_PromptReco_Collisions17_JSON_MuonPhys.txt'
p64
sbsg29
g3
(g9
g5
NtRp65
(dp66
g12
I00
sS'pyCfgParams'
p67
(lp68
sg13
S''
sg14
g15
((lp69
S'psetName'
p70
aS'pluginName'
p71
ag67
atRp72
sg19
g29
sg20
(dp73
sg71
S'Analysis'
p74
sg22
g15
((ltRp75
sg70
S'../../test/scout2017_cfg.py'
p76
sg25
NsbsbsS'voGroup'
p77
S''
sS'Server'
p78
S'cmsweb.cern.ch'
p79
sS'instance'
p80
S'prod'
p81
sS'RequestName'
p82
V171107_140356:jsalfeld_crab_20171107_150349
p83
sS'voRole'
p84
S'NULL'
p85
sS'Port'
p86
S''
s.